target datalayout = "e-m:e-p270:32:32-p271:32:32-p272:64:64-i64:64-i128:128-f80:128-n8:16:32:64-S128"
target triple = "x86_64-pc-linux-gnu"

%struct.UBiDiTransform = type { ptr, ptr, ptr, ptr, i32, i32, i32, ptr, i32, i32, i32 }

; Function Attrs: mustprogress uwtable
define internal noundef signext i8 @_ZL13action_mirrorP14UBiDiTransformP10UErrorCode(ptr noundef %0, ptr noundef %1) #0 {
  %3 = alloca i8, align 1
  %4 = alloca ptr, align 8
  %5 = alloca ptr, align 8
  %6 = alloca i32, align 4
  %7 = alloca i32, align 4
  %8 = alloca i32, align 4
  %9 = alloca i32, align 4
  %10 = alloca i8, align 1
  %11 = alloca i16, align 2
  store ptr %0, ptr %4, align 8, !tbaa !7
  store ptr %1, ptr %5, align 8, !tbaa !3
  call void @llvm.lifetime.start.p0(i64 4, ptr %6) #7
  call void @llvm.lifetime.start.p0(i64 4, ptr %7) #7
  store i32 0, ptr %7, align 4, !tbaa !19
  call void @llvm.lifetime.start.p0(i64 4, ptr %8) #7
  store i32 0, ptr %8, align 4, !tbaa !19
  %12 = load ptr, ptr %4, align 8, !tbaa !7
  %13 = getelementptr inbounds nuw %struct.UBiDiTransform, ptr %12, i32 0, i32 8
  %14 = load i32, ptr %13, align 8, !tbaa !28
  %15 = and i32 %14, 2
  %16 = icmp eq i32 0, %15
  br i1 %16, label %17, label %18

17:                                               ; preds = %2
  store i8 0, ptr %3, align 1
  store i32 1, ptr %9, align 4
  br label %167

18:                                               ; preds = %2
  %19 = load ptr, ptr %4, align 8, !tbaa !7
  %20 = getelementptr inbounds nuw %struct.UBiDiTransform, ptr %19, i32 0, i32 6
  %21 = load i32, ptr %20, align 8, !tbaa !32
  %22 = load ptr, ptr %4, align 8, !tbaa !7
  %23 = getelementptr inbounds nuw %struct.UBiDiTransform, ptr %22, i32 0, i32 4
  %24 = load i32, ptr %23, align 8, !tbaa !36
  %25 = icmp ult i32 %21, %24
  br i1 %25, label %26, label %28

26:                                               ; preds = %18
  %27 = load ptr, ptr %5, align 8, !tbaa !3
  store i32 15, ptr %27, align 4, !tbaa !9
  store i8 0, ptr %3, align 1
  store i32 1, ptr %9, align 4
  br label %167

28:                                               ; preds = %18
  br label %29

29:                                               ; preds = %152, %28
  call void @llvm.lifetime.start.p0(i64 1, ptr %10) #7
  %30 = load ptr, ptr %4, align 8, !tbaa !7
  %31 = getelementptr inbounds nuw %struct.UBiDiTransform, ptr %30, i32 0, i32 0
  %32 = load ptr, ptr %31, align 8, !tbaa !11
  %33 = load i32, ptr %7, align 4, !tbaa !19
  %34 = call zeroext i8 @ubidi_getLevelAt_77(ptr noundef %32, i32 noundef %33)
  %35 = zext i8 %34 to i32
  %36 = and i32 %35, 1
  %37 = trunc i32 %36 to i8
  store i8 %37, ptr %10, align 1, !tbaa !20
  br label %38

38:                                               ; preds = %29
  %39 = load ptr, ptr %4, align 8, !tbaa !7
  %40 = getelementptr inbounds nuw %struct.UBiDiTransform, ptr %39, i32 0, i32 2
  %41 = load ptr, ptr %40, align 8, !tbaa !17
  %42 = load i32, ptr %7, align 4, !tbaa !19
  %43 = add i32 %42, 1
  store i32 %43, ptr %7, align 4, !tbaa !19
  %44 = zext i32 %42 to i64
  %45 = getelementptr inbounds nuw i16, ptr %41, i64 %44
  %46 = load i16, ptr %45, align 2, !tbaa !49
  %47 = zext i16 %46 to i32
  store i32 %47, ptr %6, align 4, !tbaa !19
  %48 = load i32, ptr %6, align 4, !tbaa !19
  %49 = and i32 %48, -1024
  %50 = icmp eq i32 %49, 55296
  br i1 %50, label %51, label %78

51:                                               ; preds = %38
  call void @llvm.lifetime.start.p0(i64 2, ptr %11) #7
  %52 = load i32, ptr %7, align 4, !tbaa !19
  %53 = load ptr, ptr %4, align 8, !tbaa !7
  %54 = getelementptr inbounds nuw %struct.UBiDiTransform, ptr %53, i32 0, i32 4
  %55 = load i32, ptr %54, align 8, !tbaa !36
  %56 = icmp ne i32 %52, %55
  br i1 %56, label %57, label %77

57:                                               ; preds = %51
  %58 = load ptr, ptr %4, align 8, !tbaa !7
  %59 = getelementptr inbounds nuw %struct.UBiDiTransform, ptr %58, i32 0, i32 2
  %60 = load ptr, ptr %59, align 8, !tbaa !17
  %61 = load i32, ptr %7, align 4, !tbaa !19
  %62 = zext i32 %61 to i64
  %63 = getelementptr inbounds nuw i16, ptr %60, i64 %62
  %64 = load i16, ptr %63, align 2, !tbaa !49
  store i16 %64, ptr %11, align 2, !tbaa !51
  %65 = zext i16 %64 to i32
  %66 = and i32 %65, -1024
  %67 = icmp eq i32 %66, 56320
  br i1 %67, label %68, label %77

68:                                               ; preds = %57
  %69 = load i32, ptr %7, align 4, !tbaa !19
  %70 = add i32 %69, 1
  store i32 %70, ptr %7, align 4, !tbaa !19
  %71 = load i32, ptr %6, align 4, !tbaa !19
  %72 = shl i32 %71, 10
  %73 = load i16, ptr %11, align 2, !tbaa !51
  %74 = zext i16 %73 to i32
  %75 = add nsw i32 %72, %74
  %76 = sub nsw i32 %75, 56613888
  store i32 %76, ptr %6, align 4, !tbaa !19
  br label %77

77:                                               ; preds = %68, %57, %51
  call void @llvm.lifetime.end.p0(i64 2, ptr %11) #7
  br label %78

78:                                               ; preds = %77, %38
  br label %79

79:                                               ; preds = %78
  br label %80

80:                                               ; preds = %79
  br label %81

81:                                               ; preds = %80
  %82 = load i8, ptr %10, align 1, !tbaa !20
  %83 = icmp ne i8 %82, 0
  br i1 %83, label %84, label %87

84:                                               ; preds = %81
  %85 = load i32, ptr %6, align 4, !tbaa !19
  %86 = call i32 @u_charMirror_77(i32 noundef %85)
  br label %89

87:                                               ; preds = %81
  %88 = load i32, ptr %6, align 4, !tbaa !19
  br label %89

89:                                               ; preds = %87, %84
  %90 = phi i32 [ %86, %84 ], [ %88, %87 ]
  %91 = icmp ule i32 %90, 65535
  br i1 %91, label %92, label %110

92:                                               ; preds = %89
  %93 = load i8, ptr %10, align 1, !tbaa !20
  %94 = icmp ne i8 %93, 0
  br i1 %94, label %95, label %98

95:                                               ; preds = %92
  %96 = load i32, ptr %6, align 4, !tbaa !19
  %97 = call i32 @u_charMirror_77(i32 noundef %96)
  br label %100

98:                                               ; preds = %92
  %99 = load i32, ptr %6, align 4, !tbaa !19
  br label %100

100:                                              ; preds = %98, %95
  %101 = phi i32 [ %97, %95 ], [ %99, %98 ]
  %102 = trunc i32 %101 to i16
  %103 = load ptr, ptr %4, align 8, !tbaa !7
  %104 = getelementptr inbounds nuw %struct.UBiDiTransform, ptr %103, i32 0, i32 3
  %105 = load ptr, ptr %104, align 8, !tbaa !31
  %106 = load i32, ptr %8, align 4, !tbaa !19
  %107 = add i32 %106, 1
  store i32 %107, ptr %8, align 4, !tbaa !19
  %108 = zext i32 %106 to i64
  %109 = getelementptr inbounds nuw i16, ptr %105, i64 %108
  store i16 %102, ptr %109, align 2, !tbaa !49
  br label %149

110:                                              ; preds = %89
  %111 = load i8, ptr %10, align 1, !tbaa !20
  %112 = icmp ne i8 %111, 0
  br i1 %112, label %113, label %116

113:                                              ; preds = %110
  %114 = load i32, ptr %6, align 4, !tbaa !19
  %115 = call i32 @u_charMirror_77(i32 noundef %114)
  br label %118

116:                                              ; preds = %110
  %117 = load i32, ptr %6, align 4, !tbaa !19
  br label %118

118:                                              ; preds = %116, %113
  %119 = phi i32 [ %115, %113 ], [ %117, %116 ]
  %120 = ashr i32 %119, 10
  %121 = add nsw i32 %120, 55232
  %122 = trunc i32 %121 to i16
  %123 = load ptr, ptr %4, align 8, !tbaa !7
  %124 = getelementptr inbounds nuw %struct.UBiDiTransform, ptr %123, i32 0, i32 3
  %125 = load ptr, ptr %124, align 8, !tbaa !31
  %126 = load i32, ptr %8, align 4, !tbaa !19
  %127 = add i32 %126, 1
  store i32 %127, ptr %8, align 4, !tbaa !19
  %128 = zext i32 %126 to i64
  %129 = getelementptr inbounds nuw i16, ptr %125, i64 %128
  store i16 %122, ptr %129, align 2, !tbaa !49
  %130 = load i8, ptr %10, align 1, !tbaa !20
  %131 = icmp ne i8 %130, 0
  br i1 %131, label %132, label %135

132:                                              ; preds = %118
  %133 = load i32, ptr %6, align 4, !tbaa !19
  %134 = call i32 @u_charMirror_77(i32 noundef %133)
  br label %137

135:                                              ; preds = %118
  %136 = load i32, ptr %6, align 4, !tbaa !19
  br label %137

137:                                              ; preds = %135, %132
  %138 = phi i32 [ %134, %132 ], [ %136, %135 ]
  %139 = and i32 %138, 1023
  %140 = or i32 %139, 56320
  %141 = trunc i32 %140 to i16
  %142 = load ptr, ptr %4, align 8, !tbaa !7
  %143 = getelementptr inbounds nuw %struct.UBiDiTransform, ptr %142, i32 0, i32 3
  %144 = load ptr, ptr %143, align 8, !tbaa !31
  %145 = load i32, ptr %8, align 4, !tbaa !19
  %146 = add i32 %145, 1
  store i32 %146, ptr %8, align 4, !tbaa !19
  %147 = zext i32 %145 to i64
  %148 = getelementptr inbounds nuw i16, ptr %144, i64 %147
  store i16 %141, ptr %148, align 2, !tbaa !49
  br label %149

149:                                              ; preds = %137, %100
  br label %150

150:                                              ; preds = %149
  br label %151

151:                                              ; preds = %150
  call void @llvm.lifetime.end.p0(i64 1, ptr %10) #7
  br label %152

152:                                              ; preds = %151
  %153 = load i32, ptr %7, align 4, !tbaa !19
  %154 = load ptr, ptr %4, align 8, !tbaa !7
  %155 = getelementptr inbounds nuw %struct.UBiDiTransform, ptr %154, i32 0, i32 4
  %156 = load i32, ptr %155, align 8, !tbaa !36
  %157 = icmp ult i32 %153, %156
  br i1 %157, label %29, label %158, !llvm.loop !53

158:                                              ; preds = %152
  %159 = load ptr, ptr %4, align 8, !tbaa !7
  %160 = getelementptr inbounds nuw %struct.UBiDiTransform, ptr %159, i32 0, i32 4
  %161 = load i32, ptr %160, align 8, !tbaa !36
  %162 = load ptr, ptr %4, align 8, !tbaa !7
  %163 = getelementptr inbounds nuw %struct.UBiDiTransform, ptr %162, i32 0, i32 7
  %164 = load ptr, ptr %163, align 8, !tbaa !33
  store i32 %161, ptr %164, align 4, !tbaa !19
  %165 = load ptr, ptr %4, align 8, !tbaa !7
  %166 = getelementptr inbounds nuw %struct.UBiDiTransform, ptr %165, i32 0, i32 8
  store i32 0, ptr %166, align 8, !tbaa !28
  store i8 1, ptr %3, align 1
  store i32 1, ptr %9, align 4
  br label %167

167:                                              ; preds = %158, %26, %17
  call void @llvm.lifetime.end.p0(i64 4, ptr %8) #7
  call void @llvm.lifetime.end.p0(i64 4, ptr %7) #7
  call void @llvm.lifetime.end.p0(i64 4, ptr %6) #7
  %168 = load i8, ptr %3, align 1
  ret i8 %168
}