; Function Attrs: mustprogress uwtable
define internal noundef signext range(i8 0, 2) i8 @_ZL13action_mirrorP14UBiDiTransformP10UErrorCode(ptr noundef captures(none) %0, ptr noundef writeonly captures(none) %1) #0 {
  %3 = getelementptr inbounds nuw i8, ptr %0, i64 56
  %4 = load i32, ptr %3, align 8, !tbaa !26
  %5 = and i32 %4, 2
  %6 = icmp eq i32 %5, 0
  br i1 %6, label %83, label %7

7:                                                ; preds = %2
  %8 = getelementptr inbounds nuw i8, ptr %0, i64 40
  %9 = load i32, ptr %8, align 8, !tbaa !30
  %10 = getelementptr inbounds nuw i8, ptr %0, i64 32
  %11 = load i32, ptr %10, align 8, !tbaa !34
  %12 = icmp ult i32 %9, %11
  br i1 %12, label %15, label %.preheader

.preheader:                                       ; preds = %7
  %13 = getelementptr inbounds nuw i8, ptr %0, i64 16
  %14 = getelementptr inbounds nuw i8, ptr %0, i64 24
  br label %16

15:                                               ; preds = %7
  store i32 15, ptr %1, align 4, !tbaa !3
  br label %83

16:                                               ; preds = %.preheader, %74
  %.042 = phi i32 [ %.2, %74 ], [ 0, %.preheader ]
  %.040 = phi i32 [ %75, %74 ], [ 0, %.preheader ]
  %17 = load ptr, ptr %0, align 8, !tbaa !7
  %18 = tail call zeroext i8 @ubidi_getLevelAt_77(ptr noundef %17, i32 noundef %.042)
  %19 = and i8 %18, 1
  %20 = load ptr, ptr %13, align 8, !tbaa !14
  %21 = add nuw i32 %.042, 1
  %22 = zext i32 %.042 to i64
  %23 = getelementptr inbounds nuw i16, ptr %20, i64 %22
  %24 = load i16, ptr %23, align 2, !tbaa !39
  %25 = zext i16 %24 to i32
  %26 = and i32 %25, 64512
  %27 = icmp eq i32 %26, 55296
  br i1 %27, label %28, label %42

28:                                               ; preds = %16
  %29 = load i32, ptr %10, align 8, !tbaa !34
  %.not = icmp eq i32 %21, %29
  br i1 %.not, label %42, label %30

30:                                               ; preds = %28
  %31 = zext i32 %21 to i64
  %32 = getelementptr inbounds nuw i16, ptr %20, i64 %31
  %33 = load i16, ptr %32, align 2, !tbaa !39
  %34 = zext i16 %33 to i32
  %35 = and i32 %34, 64512
  %36 = icmp eq i32 %35, 56320
  br i1 %36, label %37, label %42

37:                                               ; preds = %30
  %38 = add i32 %.042, 2
  %39 = shl nuw nsw i32 %25, 10
  %40 = add nsw i32 %39, -56613888
  %41 = add nuw nsw i32 %40, %34
  br label %42

42:                                               ; preds = %28, %30, %37, %16
  %.2 = phi i32 [ %21, %16 ], [ %38, %37 ], [ %21, %30 ], [ %21, %28 ]
  %.1 = phi i32 [ %25, %16 ], [ %41, %37 ], [ %25, %30 ], [ %25, %28 ]
  %.not47 = icmp eq i8 %19, 0
  br i1 %.not47, label %43, label %.thread

43:                                               ; preds = %42
  %44 = icmp samesign ult i32 %.1, 65536
  br i1 %44, label %48, label %52

.thread:                                          ; preds = %42
  %45 = tail call i32 @u_charMirror_77(i32 noundef %.1)
  %46 = icmp ult i32 %45, 65536
  %47 = tail call i32 @u_charMirror_77(i32 noundef %.1)
  br i1 %46, label %48, label %59

48:                                               ; preds = %.thread, %43
  %49 = phi i32 [ %.1, %43 ], [ %47, %.thread ]
  %50 = trunc i32 %49 to i16
  %51 = load ptr, ptr %14, align 8, !tbaa !29
  br label %74

52:                                               ; preds = %43
  %53 = lshr i32 %.1, 10
  %54 = trunc i32 %53 to i16
  %55 = add nsw i16 %54, -10304
  %56 = load ptr, ptr %14, align 8, !tbaa !29
  %57 = zext i32 %.040 to i64
  %58 = getelementptr inbounds nuw i16, ptr %56, i64 %57
  store i16 %55, ptr %58, align 2, !tbaa !39
  br label %67

59:                                               ; preds = %.thread
  %60 = lshr i32 %47, 10
  %61 = trunc i32 %60 to i16
  %62 = add i16 %61, -10304
  %63 = load ptr, ptr %14, align 8, !tbaa !29
  %64 = zext i32 %.040 to i64
  %65 = getelementptr inbounds nuw i16, ptr %63, i64 %64
  store i16 %62, ptr %65, align 2, !tbaa !39
  %66 = tail call i32 @u_charMirror_77(i32 noundef %.1)
  %.pre = load ptr, ptr %14, align 8, !tbaa !29
  br label %67

67:                                               ; preds = %52, %59
  %68 = phi ptr [ %.pre, %59 ], [ %56, %52 ]
  %69 = phi i32 [ %66, %59 ], [ %.1, %52 ]
  %70 = add i32 %.040, 1
  %71 = trunc i32 %69 to i16
  %72 = and i16 %71, 1023
  %73 = or disjoint i16 %72, -9216
  br label %74

74:                                               ; preds = %67, %48
  %.sink55 = phi i32 [ 2, %67 ], [ 1, %48 ]
  %.sink54 = phi i32 [ %70, %67 ], [ %.040, %48 ]
  %.sink52 = phi ptr [ %68, %67 ], [ %51, %48 ]
  %.sink = phi i16 [ %73, %67 ], [ %50, %48 ]
  %75 = add i32 %.040, %.sink55
  %76 = zext i32 %.sink54 to i64
  %77 = getelementptr inbounds nuw i16, ptr %.sink52, i64 %76
  store i16 %.sink, ptr %77, align 2, !tbaa !39
  %78 = load i32, ptr %10, align 8, !tbaa !34
  %79 = icmp ult i32 %.2, %78
  br i1 %79, label %16, label %80, !llvm.loop !41

80:                                               ; preds = %74
  %81 = getelementptr inbounds nuw i8, ptr %0, i64 48
  %82 = load ptr, ptr %81, align 8, !tbaa !31
  store i32 %78, ptr %82, align 4, !tbaa !16
  store i32 0, ptr %3, align 8, !tbaa !26
  br label %83

83:                                               ; preds = %2, %80, %15
  %.0 = phi i8 [ 0, %15 ], [ 1, %80 ], [ 0, %2 ]
  ret i8 %.0
}